; Function Attrs: mustprogress nounwind uwtable
define void @_ZN11OpenImageIO6v3_1_07ustring8TableRepD2Ev(ptr noundef nonnull align 8 dereferenceable(60) %0) unnamed_addr #4 align 2 personality ptr @__gxx_personality_v0 {
  %2 = getelementptr inbounds nuw i8, ptr %0, i64 8
  %3 = load ptr, ptr %2, align 8, !tbaa !24
  %4 = getelementptr inbounds nuw i8, ptr %0, i64 64
  %5 = icmp eq ptr %3, %4
  %6 = getelementptr inbounds nuw i8, ptr %0, i64 24
  br i1 %5, label %.thread, label %8

.thread:                                          ; preds = %1
  store ptr %6, ptr %2, align 8, !tbaa !17
  %7 = getelementptr inbounds nuw i8, ptr %0, i64 16
  store i64 0, ptr %7, align 8, !tbaa !18
  store i8 0, ptr %6, align 8, !tbaa !19
  br label %_ZNKSt7__cxx1112basic_stringIcSt11char_traitsIcESaIcEE11_M_is_localEv.exit.thread.i.i

8:                                                ; preds = %1
  %9 = icmp eq ptr %3, %6
  br i1 %9, label %_ZNKSt7__cxx1112basic_stringIcSt11char_traitsIcESaIcEE11_M_is_localEv.exit.thread.i.i, label %_ZNKSt7__cxx1112basic_stringIcSt11char_traitsIcESaIcEE11_M_is_localEv.exit.i.i

_ZNKSt7__cxx1112basic_stringIcSt11char_traitsIcESaIcEE11_M_is_localEv.exit.thread.i.i: ; preds = %.thread, %8
  %10 = getelementptr inbounds nuw i8, ptr %0, i64 16
  %11 = load i64, ptr %10, align 8, !tbaa !18
  %12 = icmp ult i64 %11, 16
  tail call void @llvm.assume(i1 %12)
  br label %_ZNSt7__cxx1112basic_stringIcSt11char_traitsIcESaIcEED2Ev.exit

_ZNKSt7__cxx1112basic_stringIcSt11char_traitsIcESaIcEE11_M_is_localEv.exit.i.i: ; preds = %8
  %13 = load i64, ptr %6, align 8, !tbaa !19
  %14 = add i64 %13, 1
  tail call void @_ZdlPvm(ptr noundef %3, i64 noundef %14) #23
  br label %_ZNSt7__cxx1112basic_stringIcSt11char_traitsIcESaIcEED2Ev.exit

_ZNSt7__cxx1112basic_stringIcSt11char_traitsIcESaIcEED2Ev.exit: ; preds = %_ZNKSt7__cxx1112basic_stringIcSt11char_traitsIcESaIcEE11_M_is_localEv.exit.thread.i.i, %_ZNKSt7__cxx1112basic_stringIcSt11char_traitsIcESaIcEE11_M_is_localEv.exit.i.i
  ret void
}